(dp1
S'Polygon((-73.658666 40.647296, -73.617647 40.647296, -73.617647 40.689946, -73.658666 40.689946, -73.658666 40.647296))'
p2
(lp3
I4
aI0
asS'Polygon((-0.173706 50.80835, -0.0870057 50.80835, -0.0870057 50.872314, -0.173706 50.872314, -0.173706 50.80835))'
p4
(lp5
I1
aI0
asS'Polygon((-1.95729593781 50.5746064789, 1.45178800018 50.5746064789, 1.45178800018 52.1962850089, -1.95729593781 52.1962850089, -1.95729593781 50.5746064789))'
p6
(lp7
I3
aI0
asS'Polygon((-73.985710144 40.7485249383, -73.985710144 40.7485249383, -73.985710144 40.7485249383, -73.985710144 40.7485249383, -73.985710144 40.7485249383))'
p8
(lp9
I3
aI0
asS'Polygon((-87.940033 41.644102, -87.523993 41.644102, -87.523993 42.0230669, -87.940033 42.0230669, -87.940033 41.644102))'
p10
(lp11
I1
aI0
asS'Polygon((-74.041878 40.570842, -73.855673 40.570842, -73.855673 40.739434, -74.041878 40.739434, -74.041878 40.570842))'
p12
(lp13
I24
aI0
asS'Polygon((-74.0112116319 41.443517584, -74.0112116319 41.443517584, -74.0112116319 41.443517584, -74.0112116319 41.443517584, -74.0112116319 41.443517584))'
p14
(lp15
I4
aI0
asS'Polygon((-80.519851 39.719801, -74.689517 39.719801, -74.689517 42.516072, -80.519851 42.516072, -80.519851 39.719801))'
p16
(lp17
I2
aI0
asS'Polygon((-73.933612 40.785365, -73.765271 40.785365, -73.765271 40.91533, -73.933612 40.91533, -73.933612 40.785365))'
p18
(lp19
I10
aI0
asS'Polygon((-73.171423 40.781995, -73.084176 40.781995, -73.084176 40.832939, -73.171423 40.832939, -73.171423 40.781995))'
p20
(lp21
I1
aI0
asS'Polygon((-73.606436 41.016898, -73.501758 41.016898, -73.501758 41.179771, -73.606436 41.179771, -73.606436 41.016898))'
p22
(lp23
I3
aI0
asS'Polygon((-74.255641 40.495865, -73.699793 40.495865, -73.699793 40.91533, -74.255641 40.91533, -74.255641 40.495865))'
p24
(lp25
I6
aI0
asS'Polygon((-74.154932 41.306484, -74.105042 41.306484, -74.105042 41.346828, -74.154932 41.346828, -74.154932 41.306484))'
p26
(lp27
I1
aI0
asS'Polygon((-73.444533 41.420511, -73.348209 41.420511, -73.348209 41.514229, -73.444533 41.514229, -73.444533 41.420511))'
p28
(lp29
I3
aI0
asS'Polygon((-73.724998 42.660879, -73.649201 42.660879, -73.649201 42.795001, -73.724998 42.795001, -73.724998 42.660879))'
p30
(lp31
I1
aI0
asS'Polygon((-73.911271 40.900789, -73.810443 40.900789, -73.810443 40.988346, -73.911271 40.988346, -73.911271 40.900789))'
p32
(lp33
I1
aI0
asS'Polygon((-73.962582 40.541722, -73.699793 40.541722, -73.699793 40.8000371, -73.962582 40.8000371, -73.962582 40.541722))'
p34
(lp35
I8
aI0
asS'Polygon((-74.026675 40.683935, -73.910408 40.683935, -73.910408 40.877483, -74.026675 40.877483, -74.026675 40.683935))'
p36
(lp37
I17
aI0
asS'Polygon((-2.319934 53.343623, -2.147026 53.343623, -2.147026 53.5702824, -2.319934 53.5702824, -2.319934 53.343623))'
p38
(lp39
I2
aI0
as.